; ModuleID = '22/209.c'
source_filename = "22/209.c"
target datalayout = "e-m:e-p270:32:32-p271:32:32-p272:64:64-i64:64-f80:128-n8:16:32:64-S128"
target triple = "x86_64-pc-linux-gnu"

@.str = private unnamed_addr constant [3 x i8] c"%d\00", align 1
@.str.1 = private unnamed_addr constant [3 x i8] c"No\00", align 1

; Function Attrs: noinline nounwind uwtable
define dso_local void @main() #0 {
  %1 = alloca i32, align 4
  %2 = alloca i32, align 4
  %3 = alloca [300 x i32], align 16
  %4 = alloca i32, align 4
  %5 = alloca i32, align 4
  %6 = alloca i32, align 4
  %7 = alloca i32, align 4
  %8 = alloca i8, align 1
  store i32 0, i32* %2, align 4
  store i32 0, i32* %1, align 4
  br label %9

9:                                                ; preds = %23, %0
  %10 = load i32, i32* %1, align 4
  %11 = sext i32 %10 to i64
  %12 = getelementptr inbounds [300 x i32], [300 x i32]* %3, i64 0, i64 %11
  %13 = call i32 (i8*, ...) @__isoc99_scanf(i8* getelementptr inbounds ([3 x i8], [3 x i8]* @.str, i64 0, i64 0), i32* %12)
  %14 = load i32, i32* %2, align 4
  %15 = add nsw i32 %14, 1
  store i32 %15, i32* %2, align 4
  %16 = call i32 @getchar()
  %17 = trunc i32 %16 to i8
  store i8 %17, i8* %8, align 1
  %18 = load i8, i8* %8, align 1
  %19 = sext i8 %18 to i32
  %20 = icmp ne i32 %19, 44
  br i1 %20, label %21, label %22

21:                                               ; preds = %9
  br label %26

22:                                               ; preds = %9
  br label %23

23:                                               ; preds = %22
  %24 = load i32, i32* %1, align 4
  %25 = add nsw i32 %24, 1
  store i32 %25, i32* %1, align 4
  br label %9

26:                                               ; preds = %21
  store i32 0, i32* %6, align 4
  %27 = load i32, i32* %2, align 4
  %28 = icmp eq i32 %27, 1
  br i1 %28, label %29, label %30

29:                                               ; preds = %26
  store i32 1, i32* %6, align 4
  br label %30

30:                                               ; preds = %29, %26
  %31 = load i32, i32* %2, align 4
  %32 = icmp sgt i32 %31, 1
  br i1 %32, label %33, label %56

33:                                               ; preds = %30
  store i32 0, i32* %7, align 4
  store i32 0, i32* %1, align 4
  br label %34

34:                                               ; preds = %48, %33
  %35 = load i32, i32* %1, align 4
  %36 = load i32, i32* %2, align 4
  %37 = icmp slt i32 %35, %36
  br i1 %37, label %38, label %51

38:                                               ; preds = %34
  %39 = load i32, i32* %1, align 4
  %40 = sext i32 %39 to i64
  %41 = getelementptr inbounds [300 x i32], [300 x i32]* %3, i64 0, i64 %40
  %42 = load i32, i32* %41, align 4
  %43 = getelementptr inbounds [300 x i32], [300 x i32]* %3, i64 0, i64 0
  %44 = load i32, i32* %43, align 16
  %45 = icmp ne i32 %42, %44
  br i1 %45, label %46, label %47

46:                                               ; preds = %38
  store i32 1, i32* %7, align 4
  br label %51

47:                                               ; preds = %38
  br label %48

48:                                               ; preds = %47
  %49 = load i32, i32* %1, align 4
  %50 = add nsw i32 %49, 1
  store i32 %50, i32* %1, align 4
  br label %34

51:                                               ; preds = %46, %34
  %52 = load i32, i32* %7, align 4
  %53 = icmp eq i32 %52, 0
  br i1 %53, label %54, label %55

54:                                               ; preds = %51
  store i32 1, i32* %6, align 4
  br label %55

55:                                               ; preds = %54, %51
  br label %56

56:                                               ; preds = %55, %30
  %57 = load i32, i32* %6, align 4
  %58 = icmp eq i32 %57, 1
  br i1 %58, label %59, label %61

59:                                               ; preds = %56
  %60 = call i32 (i8*, ...) @printf(i8* getelementptr inbounds ([3 x i8], [3 x i8]* @.str.1, i64 0, i64 0))
  br label %61

61:                                               ; preds = %59, %56
  %62 = load i32, i32* %6, align 4
  %63 = icmp eq i32 %62, 0
  br i1 %63, label %64, label %116

64:                                               ; preds = %61
  store i32 0, i32* %4, align 4
  store i32 0, i32* %1, align 4
  br label %65

65:                                               ; preds = %82, %64
  %66 = load i32, i32* %1, align 4
  %67 = load i32, i32* %2, align 4
  %68 = icmp slt i32 %66, %67
  br i1 %68, label %69, label %85

69:                                               ; preds = %65
  %70 = load i32, i32* %1, align 4
  %71 = sext i32 %70 to i64
  %72 = getelementptr inbounds [300 x i32], [300 x i32]* %3, i64 0, i64 %71
  %73 = load i32, i32* %72, align 4
  %74 = load i32, i32* %4, align 4
  %75 = icmp sgt i32 %73, %74
  br i1 %75, label %76, label %81

76:                                               ; preds = %69
  %77 = load i32, i32* %1, align 4
  %78 = sext i32 %77 to i64
  %79 = getelementptr inbounds [300 x i32], [300 x i32]* %3, i64 0, i64 %78
  %80 = load i32, i32* %79, align 4
  store i32 %80, i32* %4, align 4
  br label %81

81:                                               ; preds = %76, %69
  br label %82

82:                                               ; preds = %81
  %83 = load i32, i32* %1, align 4
  %84 = add nsw i32 %83, 1
  store i32 %84, i32* %1, align 4
  br label %65

85:                                               ; preds = %65
  store i32 0, i32* %5, align 4
  store i32 0, i32* %1, align 4
  br label %86

86:                                               ; preds = %110, %85
  %87 = load i32, i32* %1, align 4
  %88 = load i32, i32* %2, align 4
  %89 = icmp slt i32 %87, %88
  br i1 %89, label %90, label %113

90:                                               ; preds = %86
  %91 = load i32, i32* %1, align 4
  %92 = sext i32 %91 to i64
  %93 = getelementptr inbounds [300 x i32], [300 x i32]* %3, i64 0, i64 %92
  %94 = load i32, i32* %93, align 4
  %95 = load i32, i32* %5, align 4
  %96 = icmp sgt i32 %94, %95
  br i1 %96, label %97, label %109

97:                                               ; preds = %90
  %98 = load i32, i32* %1, align 4
  %99 = sext i32 %98 to i64
  %100 = getelementptr inbounds [300 x i32], [300 x i32]* %3, i64 0, i64 %99
  %101 = load i32, i32* %100, align 4
  %102 = load i32, i32* %4, align 4
  %103 = icmp ne i32 %101, %102
  br i1 %103, label %104, label %109

104:                                              ; preds = %97
  %105 = load i32, i32* %1, align 4
  %106 = sext i32 %105 to i64
  %107 = getelementptr inbounds [300 x i32], [300 x i32]* %3, i64 0, i64 %106
  %108 = load i32, i32* %107, align 4
  store i32 %108, i32* %5, align 4
  br label %109

109:                                              ; preds = %104, %97, %90
  br label %110

110:                                              ; preds = %109
  %111 = load i32, i32* %1, align 4
  %112 = add nsw i32 %111, 1
  store i32 %112, i32* %1, align 4
  br label %86

113:                                              ; preds = %86
  %114 = load i32, i32* %5, align 4
  %115 = call i32 (i8*, ...) @printf(i8* getelementptr inbounds ([3 x i8], [3 x i8]* @.str, i64 0, i64 0), i32 %114)
  br label %116

116:                                              ; preds = %113, %61
  ret void
}

declare dso_local i32 @__isoc99_scanf(i8*, ...) #1

declare dso_local i32 @getchar() #1

declare dso_local i32 @printf(i8*, ...) #1


!llvm.module.flags = !{!0}
!llvm.ident = !{!1}

!0 = !{i32 1, !"wchar_size", i32 4}
!1 = !{!"clang version 10.0.0-4ubuntu1 "}
